target datalayout = "e-m:e-p270:32:32-p271:32:32-p272:64:64-i64:64-i128:128-f80:128-n8:16:32:64-S128"
target triple = "x86_64-pc-linux-gnu"

@.str = private unnamed_addr constant [22 x i8] c"TBB_ENABLE_SANITIZERS\00", align 1
@.str.1 = private unnamed_addr constant [2 x i8] c" \00", align 1

; Function Attrs: inlinehint mustprogress nounwind sspstrong uwtable
define internal noundef zeroext i1 @_ZN3tbb6detail2r1L26GetBoolEnvironmentVariableEPKc(ptr noundef %0) #5 {
  %2 = alloca i1, align 1
  %3 = alloca ptr, align 8
  %4 = alloca ptr, align 8
  %5 = alloca i64, align 8
  %6 = alloca i32, align 4
  store ptr %0, ptr %3, align 8, !tbaa !15
  call void @llvm.lifetime.start.p0(i64 8, ptr %4) #7
  %7 = load ptr, ptr %3, align 8, !tbaa !15
  %8 = call ptr @getenv(ptr noundef %7) #7
  store ptr %8, ptr %4, align 8, !tbaa !15
  %9 = load ptr, ptr %4, align 8, !tbaa !15
  %10 = icmp ne ptr %9, null
  br i1 %10, label %11, label %37

11:                                               ; preds = %1
  call void @llvm.lifetime.start.p0(i64 8, ptr %5) #7
  %12 = load ptr, ptr %4, align 8, !tbaa !15
  %13 = call i64 @strspn(ptr noundef %12, ptr noundef @.str.1) #8
  store i64 %13, ptr %5, align 8, !tbaa !17
  %14 = load ptr, ptr %4, align 8, !tbaa !15
  %15 = load i64, ptr %5, align 8, !tbaa !17
  %16 = getelementptr inbounds nuw i8, ptr %14, i64 %15
  %17 = load i8, ptr %16, align 1, !tbaa !19
  %18 = sext i8 %17 to i32
  %19 = icmp ne i32 %18, 49
  br i1 %19, label %20, label %21

20:                                               ; preds = %11
  store i1 false, ptr %2, align 1
  store i32 1, ptr %6, align 4
  br label %36

21:                                               ; preds = %11
  %22 = load i64, ptr %5, align 8, !tbaa !17
  %23 = add i64 %22, 1
  store i64 %23, ptr %5, align 8, !tbaa !17
  %24 = load ptr, ptr %4, align 8, !tbaa !15
  %25 = load i64, ptr %5, align 8, !tbaa !17
  %26 = getelementptr inbounds nuw i8, ptr %24, i64 %25
  %27 = call i64 @strspn(ptr noundef %26, ptr noundef @.str.1) #8
  %28 = load i64, ptr %5, align 8, !tbaa !17
  %29 = add i64 %28, %27
  store i64 %29, ptr %5, align 8, !tbaa !17
  %30 = load ptr, ptr %4, align 8, !tbaa !15
  %31 = load i64, ptr %5, align 8, !tbaa !17
  %32 = getelementptr inbounds nuw i8, ptr %30, i64 %31
  %33 = load i8, ptr %32, align 1, !tbaa !19
  %34 = icmp ne i8 %33, 0
  %35 = xor i1 %34, true
  store i1 %35, ptr %2, align 1
  store i32 1, ptr %6, align 4
  br label %36

36:                                               ; preds = %21, %20
  call void @llvm.lifetime.end.p0(i64 8, ptr %5) #7
  br label %38

37:                                               ; preds = %1
  store i32 0, ptr %6, align 4
  br label %38

38:                                               ; preds = %37, %36
  call void @llvm.lifetime.end.p0(i64 8, ptr %4) #7
  %39 = load i32, ptr %6, align 4
  switch i32 %39, label %43 [
    i32 0, label %40
    i32 1, label %41
  ]

40:                                               ; preds = %38
  store i1 false, ptr %2, align 1
  br label %41

41:                                               ; preds = %40, %38
  %42 = load i1, ptr %2, align 1
  ret i1 %42

43:                                               ; preds = %38
  unreachable
}

; Function Attrs: mustprogress sspstrong uwtable
define noundef i32 @_ZN3tbb6detail2r113loading_flagsEb(i1 noundef zeroext %0) #3 {
  %2 = alloca i8, align 1
  %3 = alloca i32, align 4
  %4 = zext i1 %0 to i8
  store i8 %4, ptr %2, align 1, !tbaa !9
  call void @llvm.lifetime.start.p0(i64 4, ptr %3) #7
  store i32 2, ptr %3, align 4, !tbaa !11
  %5 = load i8, ptr %2, align 1, !tbaa !9, !range !13, !noundef !14
  %6 = trunc i8 %5 to i1
  br i1 %6, label %7, label %15

7:                                                ; preds = %1
  %8 = load i32, ptr %3, align 4, !tbaa !11
  %9 = or i32 %8, 0
  store i32 %9, ptr %3, align 4, !tbaa !11
  %10 = call noundef zeroext i1 @_ZN3tbb6detail2r1L26GetBoolEnvironmentVariableEPKc(ptr noundef @.str)
  br i1 %10, label %14, label %11

11:                                               ; preds = %7
  %12 = load i32, ptr %3, align 4, !tbaa !11
  %13 = or i32 %12, 8
  store i32 %13, ptr %3, align 4, !tbaa !11
  br label %14

14:                                               ; preds = %11, %7
  br label %18

15:                                               ; preds = %1
  %16 = load i32, ptr %3, align 4, !tbaa !11
  %17 = or i32 %16, 256
  store i32 %17, ptr %3, align 4, !tbaa !11
  br label %18

18:                                               ; preds = %15, %14
  %19 = load i32, ptr %3, align 4, !tbaa !11
  call void @llvm.lifetime.end.p0(i64 4, ptr %3) #7
  ret i32 %19
}