; Function Attrs: mustprogress nofree nounwind sspstrong willreturn memory(read) uwtable
define noundef range(i32 2, 259) i32 @_ZN3tbb6detail2r113loading_flagsEb(i1 noundef zeroext %0) local_unnamed_addr #3 {
  br i1 %0, label %2, label %_ZN3tbb6detail2r1L26GetBoolEnvironmentVariableEPKc.exit.thread

2:                                                ; preds = %1
  %3 = tail call ptr @getenv(ptr noundef nonnull @.str) #7
  %.not.not.not.i = icmp eq ptr %3, null
  br i1 %.not.not.not.i, label %_ZN3tbb6detail2r1L26GetBoolEnvironmentVariableEPKc.exit.thread, label %4

4:                                                ; preds = %2
  %5 = tail call i64 @strspn(ptr noundef nonnull %3, ptr noundef nonnull @.str.1) #8
  %6 = getelementptr i8, ptr %3, i64 %5
  %7 = load i8, ptr %6, align 1, !tbaa !3
  %.not14.i = icmp eq i8 %7, 49
  br i1 %.not14.i, label %_ZN3tbb6detail2r1L26GetBoolEnvironmentVariableEPKc.exit, label %_ZN3tbb6detail2r1L26GetBoolEnvironmentVariableEPKc.exit.thread

_ZN3tbb6detail2r1L26GetBoolEnvironmentVariableEPKc.exit: ; preds = %4
  %8 = getelementptr i8, ptr %6, i64 1
  %9 = tail call i64 @strspn(ptr noundef nonnull %8, ptr noundef nonnull @.str.1) #8
  %10 = getelementptr i8, ptr %8, i64 %9
  %11 = load i8, ptr %10, align 1, !tbaa !3
  %.fr = freeze i8 %11
  %.not15.i = icmp eq i8 %.fr, 0
  %spec.select = select i1 %.not15.i, i32 2, i32 10
  br label %_ZN3tbb6detail2r1L26GetBoolEnvironmentVariableEPKc.exit.thread

_ZN3tbb6detail2r1L26GetBoolEnvironmentVariableEPKc.exit.thread: ; preds = %_ZN3tbb6detail2r1L26GetBoolEnvironmentVariableEPKc.exit, %2, %4, %1
  %.0 = phi i32 [ 258, %1 ], [ 10, %4 ], [ 10, %2 ], [ %spec.select, %_ZN3tbb6detail2r1L26GetBoolEnvironmentVariableEPKc.exit ]
  ret i32 %.0
}